Certificate:
    Data:
        Version: 3 (0x2)
        Serial Number: 1 (0x1)
    Signature Algorithm: sha256WithRSAEncryption
        Issuer: C=CZ, ST=PRAGUE, CN=transport-test-server.com
        Validity
            Not Before: Jan  1 00:00:00 1970 GMT
            Not After : Jan  1 00:00:00 1970 GMT
        Subject: C=CZ, ST=PRAGUE, CN=transport-test-server.com
        Subject Public Key Info:
            Public Key Algorithm: rsaEncryption
                Public-Key: (2048 bit)
                Modulus:
                    00:bf:6b:1a:11:47:01:ac:eb:5c:2d:cf:ce:6a:a4:
                    00:ce:2f:d1:25:03:5f:06:38:02:92:24:18:92:2a:
                    69:19:b2:2b:a3:4f:f7:79:de:35:c3:f5:72:37:83:
                    44:93:f9:76:fc:89:29:32:9c:0d:4b:95:7d:d1:5d:
                    40:e9:ba:49:50:7d:c6:0a:c8:1e:e7:90:1e:37:7c:
                    0b:23:a3:e3:bc:c9:53:81:de:d6:5f:cb:b2:3d:36:
                    ac:59:b0:33:91:8f:0c:5f:10:20:70:bf:a3:22:b3:
                    98:ac:d4:7a:ea:67:b8:b1:8c:cf:e5:fe:8f:a0:a5:
                    02:ad:6d:ce:f1:62:ab:dc:5d:96:9c:4f:95:47:d5:
                    82:b7:b3:e3:87:4c:8d:38:85:2a:24:9d:7f:c7:a4:
                    0e:bd:8a:2d:6b:d2:d4:e8:78:62:1b:aa:25:5f:5a:
                    64:e5:76:23:ae:11:03:9a:5c:ed:a2:ba:51:ec:b1:
                    f3:ae:ba:5c:eb:dd:49:63:ca:c7:af:0c:16:1d:94:
                    95:3a:ce:2c:8f:e2:94:7f:1f:a1:76:e2:9f:d1:41:
                    31:f0:68:e5:ae:df:d0:75:a0:34:f5:25:93:85:b3:
                    25:50:42:6c:00:c0:fe:3b:e0:fb:00:de:75:33:86:
                    6a:21:35:14:9d:7f:4a:af:f7:15:f2:d7:bb:2f:de:
                    df:ab
                Exponent: 65537 (0x10001)
        X509v3 extensions:
            X509v3 Basic Constraints: 
                CA:FALSE
            Netscape Comment: 
                OpenSSL Generated Certificate
            X509v3 Subject Key Identifier: 
                B3:42:0A:9A:00:19:CB:CB:24:A0:02:45:1E:8A:B0:54:CB:9F:55:FE
            X509v3 Authority Key Identifier: 
                keyid:B3:42:0A:9A:00:19:CB:CB:24:A0:02:45:1E:8A:B0:54:CB:9F:55:FE

    Signature Algorithm: sha256WithRSAEncryption
         32:9a:05:e3:6f:ae:ee:b1:a2:12:0a:9f:0a:e7:78:26:df:90:
         fb:84:60:ae:13:fc:ff:fd:42:84:23:14:c3:2e:e2:a9:df:4b:
         5c:2f:5b:0e:3d:f9:5a:56:50:13:bc:89:1a:08:70:dd:6c:6c:
         e8:ae:cf:22:39:92:f2:3b:40:03:8f:4e:bc:54:88:6b:fd:8c:
         b6:eb:30:90:21:db:fc:4e:5c:7e:12:75:e2:52:76:df:19:0f:
         30:49:1e:15:bc:ba:6a:e6:f7:af:93:ad:e4:36:da:47:47:a6:
         88:b0:ae:46:1e:91:e1:d6:b1:5e:a4:f0:68:02:81:57:86:5d:
         17:d1:6c:7e:7a:9f:5e:0d:fc:10:e7:7a:1a:b5:f9:4b:1d:78:
         a4:9a:9d:d7:c2:64:c3:52:28:7f:a1:b7:25:d7:13:3f:09:7f:
         f2:fd:dd:c6:91:eb:9b:51:80:e2:36:cb:9f:5b:4e:47:eb:77:
         d3:cc:8b:18:b5:0b:97:a2:53:8e:fb:9b:94:7d:57:21:32:c6:
         f3:67:93:a4:9b:eb:46:b7:cd:08:43:99:dd:c1:c3:51:b9:19:
         ef:92:77:1c:84:67:80:67:95:ba:00:75:3d:7b:8b:ff:24:30:
         f1:fa:6d:da:31:9d:cf:06:da:5d:04:07:14:45:8c:6b:e7:21:
         31:ec:7b:23
-----BEGIN CERTIFICATE-----
MIIDfjCCAmagAwIBAgIBATANBgkqhkiG9w0BAQsFADBCMQswCQYDVQQGEwJDWjEP
MA0GA1UECAwGUFJBR1VFMSIwIAYDVQQDDBl0cmFuc3BvcnQtdGVzdC1zZXJ2ZXIu
Y29tMCIYDzE5NzAwMTAxMDAwMDAwWhgPMTk3MDAxMDEwMDAwMDBaMEIxCzAJBgNV
BAYTAkNaMQ8wDQYDVQQIDAZQUkFHVUUxIjAgBgNVBAMMGXRyYW5zcG9ydC10ZXN0
LXNlcnZlci5jb20wggEiMA0GCSqGSIb3DQEBAQUAA4IBDwAwggEKAoIBAQC/axoR
RwGs61wtz85qpADOL9ElA18GOAKSJBiSKmkZsiujT/d53jXD9XI3g0ST+Xb8iSky
nA1LlX3RXUDpuklQfcYKyB7nkB43fAsjo+O8yVOB3tZfy7I9NqxZsDORjwxfECBw
v6Mis5is1HrqZ7ixjM/l/o+gpQKtbc7xYqvcXZacT5VH1YK3s+OHTI04hSoknX/H
pA69ii1r0tToeGIbqiVfWmTldiOuEQOaXO2iulHssfOuulzr3UljysevDBYdlJU6
ziyP4pR/H6F24p/RQTHwaOWu39B1oDT1JZOFsyVQQmwAwP474PsA3nUzhmohNRSd
f0qv9xXy17sv3t+rAgMBAAGjezB5MAkGA1UdEwQCMAAwLAYJYIZIAYb4QgENBB8W
HU9wZW5TU0wgR2VuZXJhdGVkIENlcnRpZmljYXRlMB0GA1UdDgQWBBSzQgqaABnL
yySgAkUeirBUy59V/jAfBgNVHSMEGDAWgBSzQgqaABnLyySgAkUeirBUy59V/jAN
BgkqhkiG9w0BAQsFAAOCAQEAMpoF42+u7rGiEgqfCud4Jt+Q+4RgrhP8//1ChCMU
wy7iqd9LXC9bDj35WlZQE7yJGghw3Wxs6K7PIjmS8jtAA49OvFSIa/2MtuswkCHb
/E5cfhJ14lJ23xkPMEkeFby6aub3r5Ot5DbaR0emiLCuRh6R4daxXqTwaAKBV4Zd
F9FsfnqfXg38EOd6GrX5Sx14pJqd18Jkw1Iof6G3JdcTPwl/8v3dxpHrm1GA4jbL
n1tOR+t308yLGLULl6JTjvublH1XITLG82eTpJvrRrfNCEOZ3cHDUbkZ75J3HIRn
gGeVugB1PXuL/yQw8fpt2jGdzwbaXQQHFEWMa+chMex7Iw==
-----END CERTIFICATE-----
